; Function Attrs: nofree null_pointer_is_valid sspstrong uwtable
define internal void @lpp_bds_ECC_DeltaT_r12_fmt(ptr noundef %0, i32 noundef %1) #3 {
  %3 = icmp eq i32 %1, -4096
  br i1 %3, label %4, label %6

4:                                                ; preds = %2
  %5 = tail call i32 (ptr, i64, i32, i64, ptr, ...) @__snprintf_chk(ptr noundef %0, i64 noundef 240, i32 noundef 2, i64 noundef -1, ptr noundef nonnull @.str.7945, i32 noundef -4096)
  br label %11

6:                                                ; preds = %2
  %7 = sitofp i32 %1 to float
  %8 = fpext float %7 to double
  %9 = fmul double %8, 1.000000e-01
  %10 = tail call i32 (ptr, i64, i32, i64, ptr, ...) @__snprintf_chk(ptr noundef %0, i64 noundef 240, i32 noundef 2, i64 noundef -1, ptr noundef nonnull @.str.7760, double noundef %9, i32 noundef %1)
  br label %11

11:                                               ; preds = %6, %4
  ret void
}